target datalayout = "e-m:e-p270:32:32-p271:32:32-p272:64:64-i64:64-i128:128-f80:128-n8:16:32:64-S128"
target triple = "x86_64-pc-linux-gnu"

%struct._packet_info = type { ptr, ptr, i32, i32, %struct.nstime_t, %struct.nstime_t, %struct.nstime_t, i8, ptr, ptr, ptr, ptr, %struct._address, %struct._address, %struct._address, %struct._address, %struct._address, %struct._address, i32, ptr, i8, [3 x i8], %struct.anon, i32, i32, i32, i32, ptr, i8, ptr, ptr, i16, i16, i32, i32, i16, i32, i32, ptr, ptr, ptr, i8, i8, i16, i16, i16, i32, i16, i16, ptr, ptr, ptr, ptr, ptr, i32, i32 }
%struct.nstime_t = type { i64, i32 }
%struct._address = type { i32, i32, ptr, ptr }
%struct.anon = type { i8, [3 x i8] }

@ett_dsmcc = internal global i32 0, align 4
@proto_dsmcc = internal global i32 0, align 4
@.str.488 = private unnamed_addr constant [7 x i8] c"DSM-CC\00", align 1

; Function Attrs: null_pointer_is_valid sspstrong uwtable
define internal i32 @dissect_dsmcc_tcp(ptr noundef %0, ptr noundef %1, ptr noundef %2, ptr noundef %3) #0 {
  %5 = alloca i32, align 4
  %6 = alloca ptr, align 8
  %7 = alloca ptr, align 8
  %8 = alloca ptr, align 8
  %9 = alloca ptr, align 8
  %10 = alloca ptr, align 8
  %11 = alloca ptr, align 8
  %12 = alloca i32, align 4
  store ptr %0, ptr %6, align 8
  store ptr %1, ptr %7, align 8
  store ptr %2, ptr %8, align 8
  store ptr %3, ptr %9, align 8
  call void @llvm.lifetime.start.p0(i64 8, ptr %10) #4
  call void @llvm.lifetime.start.p0(i64 8, ptr %11) #4
  %13 = load ptr, ptr %6, align 8
  %14 = call zeroext i8 @tvb_get_uint8(ptr noundef %13, i32 noundef 0)
  %15 = zext i8 %14 to i32
  %16 = icmp ne i32 %15, 17
  br i1 %16, label %17, label %18

17:                                               ; preds = %4
  store i32 0, ptr %5, align 4
  store i32 1, ptr %12, align 4
  br label %38

18:                                               ; preds = %4
  %19 = load ptr, ptr %7, align 8
  %20 = getelementptr inbounds nuw %struct._packet_info, ptr %19, i32 0, i32 1
  %21 = load ptr, ptr %20, align 8
  call void @col_set_str(ptr noundef %21, i32 noundef 35, ptr noundef @.str.488)
  %22 = load ptr, ptr %7, align 8
  %23 = getelementptr inbounds nuw %struct._packet_info, ptr %22, i32 0, i32 1
  %24 = load ptr, ptr %23, align 8
  call void @col_clear(ptr noundef %24, i32 noundef 25)
  %25 = load ptr, ptr %8, align 8
  %26 = load i32, ptr @proto_dsmcc, align 4
  %27 = load ptr, ptr %6, align 8
  %28 = call ptr @proto_tree_add_item(ptr noundef %25, i32 noundef %26, ptr noundef %27, i32 noundef 0, i32 noundef -1, i32 noundef 0)
  store ptr %28, ptr %10, align 8
  %29 = load ptr, ptr %10, align 8
  %30 = load i32, ptr @ett_dsmcc, align 4
  %31 = call ptr @proto_item_add_subtree(ptr noundef %29, i32 noundef %30)
  store ptr %31, ptr %11, align 8
  %32 = load ptr, ptr %6, align 8
  %33 = load ptr, ptr %7, align 8
  %34 = load ptr, ptr %11, align 8
  %35 = load ptr, ptr %8, align 8
  call void @dissect_dsmcc_un(ptr noundef %32, ptr noundef %33, ptr noundef %34, ptr noundef %35)
  %36 = load ptr, ptr %6, align 8
  %37 = call i32 @tvb_reported_length(ptr noundef %36)
  store i32 %37, ptr %5, align 4
  store i32 1, ptr %12, align 4
  br label %38

38:                                               ; preds = %18, %17
  call void @llvm.lifetime.end.p0(i64 8, ptr %11) #4
  call void @llvm.lifetime.end.p0(i64 8, ptr %10) #4
  %39 = load i32, ptr %5, align 4
  ret i32 %39
}