; Function Attrs: null_pointer_is_valid sspstrong uwtable
define internal i32 @dissect_dsmcc_tcp(ptr noundef %0, ptr noundef %1, ptr noundef %2, ptr readnone captures(none) %3) #0 {
  %5 = tail call zeroext i8 @tvb_get_uint8(ptr noundef %0, i32 noundef 0)
  %.not = icmp eq i8 %5, 17
  br i1 %.not, label %6, label %15

6:                                                ; preds = %4
  %7 = getelementptr inbounds nuw i8, ptr %1, i64 8
  %8 = load ptr, ptr %7, align 8
  tail call void @col_set_str(ptr noundef %8, i32 noundef 35, ptr noundef nonnull @.str.488)
  %9 = load ptr, ptr %7, align 8
  tail call void @col_clear(ptr noundef %9, i32 noundef 25)
  %10 = load i32, ptr @proto_dsmcc, align 4
  %11 = tail call ptr @proto_tree_add_item(ptr noundef %2, i32 noundef %10, ptr noundef %0, i32 noundef 0, i32 noundef -1, i32 noundef 0)
  %12 = load i32, ptr @ett_dsmcc, align 4
  %13 = tail call ptr @proto_item_add_subtree(ptr noundef %11, i32 noundef %12)
  tail call fastcc void @dissect_dsmcc_un(ptr noundef %0, ptr noundef %1, ptr noundef %13, ptr noundef %2)
  %14 = tail call i32 @tvb_reported_length(ptr noundef %0)
  br label %15

15:                                               ; preds = %4, %6
  %.0 = phi i32 [ %14, %6 ], [ 0, %4 ]
  ret i32 %.0
}